target datalayout = "e-m:e-p270:32:32-p271:32:32-p272:64:64-i64:64-i128:128-f80:128-n8:16:32:64-S128"
target triple = "x86_64-pc-linux-gnu"

; Function Attrs: nounwind uwtable
define dso_local zeroext i1 @parse_filename_for_nontemp_relation(ptr noundef %0, ptr noundef %1, ptr noundef %2, ptr noundef %3) #0 {
  %5 = alloca i1, align 1
  %6 = alloca ptr, align 8
  %7 = alloca ptr, align 8
  %8 = alloca ptr, align 8
  %9 = alloca ptr, align 8
  %10 = alloca i64, align 8
  %11 = alloca i64, align 8
  %12 = alloca i32, align 4
  %13 = alloca ptr, align 8
  %14 = alloca i32, align 4
  %15 = alloca i32, align 4
  store ptr %0, ptr %6, align 8
  store ptr %1, ptr %7, align 8
  store ptr %2, ptr %8, align 8
  store ptr %3, ptr %9, align 8
  call void @llvm.lifetime.start.p0(i64 8, ptr %10) #8
  call void @llvm.lifetime.start.p0(i64 8, ptr %11) #8
  call void @llvm.lifetime.start.p0(i64 4, ptr %12) #8
  call void @llvm.lifetime.start.p0(i64 8, ptr %13) #8
  %16 = load ptr, ptr %7, align 8
  store i32 0, ptr %16, align 4
  %17 = load ptr, ptr %8, align 8
  store i32 -1, ptr %17, align 4
  %18 = load ptr, ptr %9, align 8
  store i32 0, ptr %18, align 4
  %19 = load ptr, ptr %6, align 8
  %20 = getelementptr inbounds i8, ptr %19, i64 0
  %21 = load i8, ptr %20, align 1
  %22 = sext i8 %21 to i32
  %23 = icmp slt i32 %22, 49
  br i1 %23, label %30, label %24

24:                                               ; preds = %4
  %25 = load ptr, ptr %6, align 8
  %26 = getelementptr inbounds i8, ptr %25, i64 0
  %27 = load i8, ptr %26, align 1
  %28 = sext i8 %27 to i32
  %29 = icmp sgt i32 %28, 57
  br i1 %29, label %30, label %31

30:                                               ; preds = %24, %4
  store i1 false, ptr %5, align 1
  store i32 1, ptr %14, align 4
  br label %128

31:                                               ; preds = %24
  %32 = call ptr @__errno_location() #11
  store i32 0, ptr %32, align 4
  %33 = load ptr, ptr %6, align 8
  %34 = call i64 @strtoul(ptr noundef %33, ptr noundef %13, i32 noundef 10) #8
  store i64 %34, ptr %10, align 8
  %35 = call ptr @__errno_location() #11
  %36 = load i32, ptr %35, align 4
  %37 = icmp ne i32 %36, 0
  br i1 %37, label %48, label %38

38:                                               ; preds = %31
  %39 = load ptr, ptr %6, align 8
  %40 = load ptr, ptr %13, align 8
  %41 = icmp eq ptr %39, %40
  br i1 %41, label %48, label %42

42:                                               ; preds = %38
  %43 = load i64, ptr %10, align 8
  %44 = icmp ule i64 %43, 0
  br i1 %44, label %48, label %45

45:                                               ; preds = %42
  %46 = load i64, ptr %10, align 8
  %47 = icmp ugt i64 %46, 4294967295
  br i1 %47, label %48, label %49

48:                                               ; preds = %45, %42, %38, %31
  store i1 false, ptr %5, align 1
  store i32 1, ptr %14, align 4
  br label %128

49:                                               ; preds = %45
  %50 = load ptr, ptr %13, align 8
  store ptr %50, ptr %6, align 8
  %51 = load ptr, ptr %6, align 8
  %52 = load i8, ptr %51, align 1
  %53 = sext i8 %52 to i32
  %54 = icmp ne i32 %53, 95
  br i1 %54, label %55, label %56

55:                                               ; preds = %49
  store i32 0, ptr %12, align 4
  br label %72

56:                                               ; preds = %49
  call void @llvm.lifetime.start.p0(i64 4, ptr %15) #8
  %57 = load ptr, ptr %6, align 8
  %58 = getelementptr inbounds i8, ptr %57, i64 1
  %59 = call i32 @forkname_chars(ptr noundef %58, ptr noundef %12)
  store i32 %59, ptr %15, align 4
  %60 = load i32, ptr %15, align 4
  %61 = icmp sle i32 %60, 0
  br i1 %61, label %62, label %63

62:                                               ; preds = %56
  store i1 false, ptr %5, align 1
  store i32 1, ptr %14, align 4
  br label %69

63:                                               ; preds = %56
  %64 = load i32, ptr %15, align 4
  %65 = add i32 %64, 1
  %66 = load ptr, ptr %6, align 8
  %67 = sext i32 %65 to i64
  %68 = getelementptr inbounds i8, ptr %66, i64 %67
  store ptr %68, ptr %6, align 8
  store i32 0, ptr %14, align 4
  br label %69

69:                                               ; preds = %63, %62
  call void @llvm.lifetime.end.p0(i64 4, ptr %15) #8
  %70 = load i32, ptr %14, align 4
  switch i32 %70, label %128 [
    i32 0, label %71
  ]

71:                                               ; preds = %69
  br label %72

72:                                               ; preds = %71, %55
  %73 = load ptr, ptr %6, align 8
  %74 = load i8, ptr %73, align 1
  %75 = sext i8 %74 to i32
  %76 = icmp ne i32 %75, 46
  br i1 %76, label %77, label %78

77:                                               ; preds = %72
  store i64 0, ptr %11, align 8
  br label %113

78:                                               ; preds = %72
  %79 = load ptr, ptr %6, align 8
  %80 = getelementptr inbounds i8, ptr %79, i64 1
  %81 = load i8, ptr %80, align 1
  %82 = sext i8 %81 to i32
  %83 = icmp slt i32 %82, 49
  br i1 %83, label %90, label %84

84:                                               ; preds = %78
  %85 = load ptr, ptr %6, align 8
  %86 = getelementptr inbounds i8, ptr %85, i64 1
  %87 = load i8, ptr %86, align 1
  %88 = sext i8 %87 to i32
  %89 = icmp sgt i32 %88, 57
  br i1 %89, label %90, label %91

90:                                               ; preds = %84, %78
  store i1 false, ptr %5, align 1
  store i32 1, ptr %14, align 4
  br label %128

91:                                               ; preds = %84
  %92 = call ptr @__errno_location() #11
  store i32 0, ptr %92, align 4
  %93 = load ptr, ptr %6, align 8
  %94 = getelementptr inbounds i8, ptr %93, i64 1
  %95 = call i64 @strtoul(ptr noundef %94, ptr noundef %13, i32 noundef 10) #8
  store i64 %95, ptr %11, align 8
  %96 = call ptr @__errno_location() #11
  %97 = load i32, ptr %96, align 4
  %98 = icmp ne i32 %97, 0
  br i1 %98, label %110, label %99

99:                                               ; preds = %91
  %100 = load ptr, ptr %6, align 8
  %101 = getelementptr inbounds i8, ptr %100, i64 1
  %102 = load ptr, ptr %13, align 8
  %103 = icmp eq ptr %101, %102
  br i1 %103, label %110, label %104

104:                                              ; preds = %99
  %105 = load i64, ptr %11, align 8
  %106 = icmp ule i64 %105, 0
  br i1 %106, label %110, label %107

107:                                              ; preds = %104
  %108 = load i64, ptr %11, align 8
  %109 = icmp ugt i64 %108, 4294967295
  br i1 %109, label %110, label %111

110:                                              ; preds = %107, %104, %99, %91
  store i1 false, ptr %5, align 1
  store i32 1, ptr %14, align 4
  br label %128

111:                                              ; preds = %107
  %112 = load ptr, ptr %13, align 8
  store ptr %112, ptr %6, align 8
  br label %113

113:                                              ; preds = %111, %77
  %114 = load ptr, ptr %6, align 8
  %115 = load i8, ptr %114, align 1
  %116 = sext i8 %115 to i32
  %117 = icmp ne i32 %116, 0
  br i1 %117, label %118, label %119

118:                                              ; preds = %113
  store i1 false, ptr %5, align 1
  store i32 1, ptr %14, align 4
  br label %128

119:                                              ; preds = %113
  %120 = load i64, ptr %10, align 8
  %121 = trunc i64 %120 to i32
  %122 = load ptr, ptr %7, align 8
  store i32 %121, ptr %122, align 4
  %123 = load i32, ptr %12, align 4
  %124 = load ptr, ptr %8, align 8
  store i32 %123, ptr %124, align 4
  %125 = load i64, ptr %11, align 8
  %126 = trunc i64 %125 to i32
  %127 = load ptr, ptr %9, align 8
  store i32 %126, ptr %127, align 4
  store i1 true, ptr %5, align 1
  store i32 1, ptr %14, align 4
  br label %128

128:                                              ; preds = %119, %118, %110, %90, %69, %48, %30
  call void @llvm.lifetime.end.p0(i64 8, ptr %13) #8
  call void @llvm.lifetime.end.p0(i64 4, ptr %12) #8
  call void @llvm.lifetime.end.p0(i64 8, ptr %11) #8
  call void @llvm.lifetime.end.p0(i64 8, ptr %10) #8
  %129 = load i1, ptr %5, align 1
  ret i1 %129
}