; Function Attrs: nounwind uwtable
define dso_local noundef zeroext i1 @parse_filename_for_nontemp_relation(ptr noundef %0, ptr noundef writeonly captures(none) initializes((0, 4)) %1, ptr noundef writeonly captures(none) initializes((0, 4)) %2, ptr noundef writeonly captures(none) initializes((0, 4)) %3) local_unnamed_addr #0 {
  %5 = alloca i32, align 4
  %6 = alloca ptr, align 8
  call void @llvm.lifetime.start.p0(i64 4, ptr nonnull %5) #9
  call void @llvm.lifetime.start.p0(i64 8, ptr nonnull %6) #9
  store i32 0, ptr %1, align 4
  store i32 -1, ptr %2, align 4
  store i32 0, ptr %3, align 4
  %7 = load i8, ptr %0, align 1
  %8 = add i8 %7, -58
  %or.cond = icmp ult i8 %8, -9
  br i1 %or.cond, label %49, label %9

9:                                                ; preds = %4
  %10 = tail call ptr @__errno_location() #10
  store i32 0, ptr %10, align 4
  %11 = call i64 @strtoul(ptr noundef nonnull %0, ptr noundef nonnull %6, i32 noundef 10) #9
  %12 = load i32, ptr %10, align 4
  %.not = icmp eq i32 %12, 0
  br i1 %.not, label %13, label %49

13:                                               ; preds = %9
  %14 = load ptr, ptr %6, align 8
  %15 = icmp eq ptr %0, %14
  %16 = add i64 %11, -4294967296
  %17 = icmp ult i64 %16, -4294967295
  %or.cond3 = select i1 %15, i1 true, i1 %17
  br i1 %or.cond3, label %49, label %18

18:                                               ; preds = %13
  %19 = load i8, ptr %14, align 1
  %.not46 = icmp eq i8 %19, 95
  br i1 %.not46, label %21, label %20

20:                                               ; preds = %18
  store i32 0, ptr %5, align 4
  br label %28

21:                                               ; preds = %18
  %22 = getelementptr inbounds nuw i8, ptr %14, i64 1
  %23 = call i32 @forkname_chars(ptr noundef nonnull %22, ptr noundef nonnull %5) #9
  %24 = icmp sgt i32 %23, 0
  br i1 %24, label %._crit_edge, label %49

._crit_edge:                                      ; preds = %21
  %25 = add nuw i32 %23, 1
  %26 = sext i32 %25 to i64
  %27 = getelementptr inbounds i8, ptr %14, i64 %26
  %.pre = load i8, ptr %27, align 1
  br label %28

28:                                               ; preds = %._crit_edge, %20
  %29 = phi i8 [ %19, %20 ], [ %.pre, %._crit_edge ]
  %.037 = phi ptr [ %14, %20 ], [ %27, %._crit_edge ]
  %.not47 = icmp eq i8 %29, 46
  br i1 %.not47, label %30, label %44

30:                                               ; preds = %28
  %31 = getelementptr inbounds nuw i8, ptr %.037, i64 1
  %32 = load i8, ptr %31, align 1
  %33 = add i8 %32, -58
  %or.cond50 = icmp ult i8 %33, -9
  br i1 %or.cond50, label %49, label %34

34:                                               ; preds = %30
  store i32 0, ptr %10, align 4
  %35 = call i64 @strtoul(ptr noundef nonnull %31, ptr noundef nonnull %6, i32 noundef 10) #9
  %36 = load i32, ptr %10, align 4
  %.not48 = icmp eq i32 %36, 0
  br i1 %.not48, label %37, label %49

37:                                               ; preds = %34
  %38 = load ptr, ptr %6, align 8
  %39 = icmp eq ptr %31, %38
  %40 = add i64 %35, -4294967296
  %41 = icmp ult i64 %40, -4294967295
  %or.cond7 = select i1 %39, i1 true, i1 %41
  br i1 %or.cond7, label %49, label %42

42:                                               ; preds = %37
  %43 = trunc nuw i64 %35 to i32
  %.pr = load i8, ptr %38, align 1
  br label %44

44:                                               ; preds = %28, %42
  %45 = phi i8 [ %29, %28 ], [ %.pr, %42 ]
  %.036 = phi i32 [ 0, %28 ], [ %43, %42 ]
  %.not49 = icmp eq i8 %45, 0
  br i1 %.not49, label %46, label %49

46:                                               ; preds = %44
  %47 = trunc nuw i64 %11 to i32
  store i32 %47, ptr %1, align 4
  %48 = load i32, ptr %5, align 4
  store i32 %48, ptr %2, align 4
  store i32 %.036, ptr %3, align 4
  br label %49

49:                                               ; preds = %44, %34, %37, %30, %9, %13, %4, %21, %46
  %.0 = phi i1 [ true, %46 ], [ false, %21 ], [ false, %4 ], [ false, %13 ], [ false, %9 ], [ false, %30 ], [ false, %37 ], [ false, %34 ], [ false, %44 ]
  call void @llvm.lifetime.end.p0(i64 8, ptr nonnull %6) #9
  call void @llvm.lifetime.end.p0(i64 4, ptr nonnull %5) #9
  ret i1 %.0
}